; Function Attrs: mustprogress nounwind uwtable
define internal noalias noundef ptr @_ZN4node12_GLOBAL__N_117CompressionStreamINS0_20BrotliEncoderContextEE14AllocForBrotliEPvm(ptr nocapture noundef %data, i64 noundef %size) #3 align 2 {
entry:
  %add = add i64 %size, 8
  %cmp.i.i.i = icmp eq i64 %add, 0
  br i1 %cmp.i.i.i, label %return, label %if.end.i.i.i

if.end.i.i.i:                                     ; preds = %entry
  %malloc.i.i = tail call ptr @malloc(i64 %add)
  %cmp2.i.i.i = icmp eq ptr %malloc.i.i, null
  br i1 %cmp2.i.i.i, label %_ZN4node15UncheckedMallocEm.exit, label %if.end

_ZN4node15UncheckedMallocEm.exit:                 ; preds = %if.end.i.i.i
  tail call void @_ZN4node21LowMemoryNotificationEv() #22
  %malloc1.i.i = tail call ptr @malloc(i64 %add)
  %cmp = icmp eq ptr %malloc1.i.i, null
  br i1 %cmp, label %return, label %if.end

if.end:                                           ; preds = %if.end.i.i.i, %_ZN4node15UncheckedMallocEm.exit
  %retval.0.i.i.i15 = phi ptr [ %malloc1.i.i, %_ZN4node15UncheckedMallocEm.exit ], [ %malloc.i.i, %if.end.i.i.i ]
  store i64 %add, ptr %retval.0.i.i.i15, align 8
  %unreported_allocations_ = getelementptr inbounds i8, ptr %data, i64 224
  %0 = atomicrmw add ptr %unreported_allocations_, i64 %add monotonic, align 8
  %add.ptr = getelementptr inbounds i8, ptr %retval.0.i.i.i15, i64 8
  br label %return

return:                                           ; preds = %entry, %_ZN4node15UncheckedMallocEm.exit, %if.end
  %retval.0 = phi ptr [ %add.ptr, %if.end ], [ null, %_ZN4node15UncheckedMallocEm.exit ], [ null, %entry ]
  ret ptr %retval.0
}